; Function Attrs: mustprogress nounwind uwtable
define internal void @_ZN5clang4ento5check7PreCall10_checkCallIN12_GLOBAL__N_118ObjCDeallocCheckerEEEvPvRKNS0_9CallEventERNS0_14CheckerContextE(ptr nocapture noundef readonly %0, ptr noundef nonnull align 8 dereferenceable(72) %1, ptr nocapture noundef nonnull align 8 dereferenceable(81) %2) #0 align 2 {
  %4 = alloca %"class.clang::ento::SVal", align 8
  call void @llvm.lifetime.start.p0(i64 16, ptr nonnull %4)
  %5 = load ptr, ptr %1, align 8
  %6 = getelementptr inbounds i8, ptr %5, i64 48
  %7 = load ptr, ptr %6, align 8
  %8 = tail call noundef ptr %7(ptr noundef nonnull align 8 dereferenceable(72) %1) #18
  %.not.i.i.i.i = icmp eq ptr %8, null
  br i1 %.not.i.i.i.i, label %_ZNK5clang4ento9CallEvent19getCalleeIdentifierEv.exit.i, label %9

9:                                                ; preds = %3
  %10 = getelementptr inbounds nuw i8, ptr %8, i64 28
  %11 = load i32, ptr %10, align 4
  %12 = and i32 %11, 127
  %13 = add nsw i32 %12, -15
  %14 = icmp ult i32 %13, 63
  br i1 %14, label %_ZN4llvm16dyn_cast_or_nullIN5clang9NamedDeclEKNS1_4DeclEEEDaPT0_.exit.i.i, label %_ZNK5clang4ento9CallEvent19getCalleeIdentifierEv.exit.i

_ZN4llvm16dyn_cast_or_nullIN5clang9NamedDeclEKNS1_4DeclEEEDaPT0_.exit.i.i: ; preds = %9
  %15 = getelementptr inbounds nuw i8, ptr %8, i64 40
  %16 = load i64, ptr %15, align 8
  %17 = and i64 %16, 7
  %18 = icmp eq i64 %17, 0
  %19 = and i64 %16, -8
  %20 = inttoptr i64 %19 to ptr
  %.0.i.i5.i.i = select i1 %18, ptr %20, ptr null
  br label %_ZNK5clang4ento9CallEvent19getCalleeIdentifierEv.exit.i

_ZNK5clang4ento9CallEvent19getCalleeIdentifierEv.exit.i: ; preds = %_ZN4llvm16dyn_cast_or_nullIN5clang9NamedDeclEKNS1_4DeclEEEDaPT0_.exit.i.i, %9, %3
  %.0.i.i = phi ptr [ %.0.i.i5.i.i, %_ZN4llvm16dyn_cast_or_nullIN5clang9NamedDeclEKNS1_4DeclEEEDaPT0_.exit.i.i ], [ null, %9 ], [ null, %3 ]
  %21 = getelementptr inbounds nuw i8, ptr %0, i64 56
  %22 = load ptr, ptr %21, align 8
  %.not.i = icmp eq ptr %.0.i.i, %22
  br i1 %.not.i, label %23, label %_ZNK12_GLOBAL__N_118ObjCDeallocChecker12checkPreCallERKN5clang4ento9CallEventERNS2_14CheckerContextE.exit

23:                                               ; preds = %_ZNK5clang4ento9CallEvent19getCalleeIdentifierEv.exit.i
  %24 = load ptr, ptr %1, align 8
  %25 = getelementptr inbounds i8, ptr %24, i64 72
  %26 = load ptr, ptr %25, align 8
  %27 = tail call noundef i32 %26(ptr noundef nonnull align 8 dereferenceable(72) %1) #18
  %.not8.i = icmp eq i32 %27, 1
  br i1 %.not8.i, label %28, label %_ZNK12_GLOBAL__N_118ObjCDeallocChecker12checkPreCallERKN5clang4ento9CallEventERNS2_14CheckerContextE.exit

28:                                               ; preds = %23
  %29 = load ptr, ptr %1, align 8
  %30 = getelementptr inbounds i8, ptr %29, i64 88
  %31 = load ptr, ptr %30, align 8
  %32 = tail call { ptr, i8 } %31(ptr noundef nonnull align 8 dereferenceable(72) %1, i32 noundef 0) #18
  %.fca.0.extract.i = extractvalue { ptr, i8 } %32, 0
  %.fca.1.extract.i = extractvalue { ptr, i8 } %32, 1
  store ptr %.fca.0.extract.i, ptr %4, align 8
  %.sroa.2.0..sroa_idx.i = getelementptr inbounds i8, ptr %4, i64 8
  store i8 %.fca.1.extract.i, ptr %.sroa.2.0..sroa_idx.i, align 8
  %33 = call noundef ptr @_ZNK5clang4ento4SVal11getAsSymbolEb(ptr noundef nonnull align 8 dereferenceable(9) %4, i1 noundef zeroext false) #18
  %.not9.i = icmp eq ptr %33, null
  br i1 %.not9.i, label %_ZNK12_GLOBAL__N_118ObjCDeallocChecker12checkPreCallERKN5clang4ento9CallEventERNS2_14CheckerContextE.exit, label %34

34:                                               ; preds = %28
  call fastcc void @_ZNK12_GLOBAL__N_118ObjCDeallocChecker24transitionToReleaseValueERN5clang4ento14CheckerContextEPKNS2_7SymExprE(ptr noundef nonnull align 8 dereferenceable(81) %2, ptr noundef nonnull %33)
  br label %_ZNK12_GLOBAL__N_118ObjCDeallocChecker12checkPreCallERKN5clang4ento9CallEventERNS2_14CheckerContextE.exit

_ZNK12_GLOBAL__N_118ObjCDeallocChecker12checkPreCallERKN5clang4ento9CallEventERNS2_14CheckerContextE.exit: ; preds = %_ZNK5clang4ento9CallEvent19getCalleeIdentifierEv.exit.i, %23, %28, %34
  call void @llvm.lifetime.end.p0(i64 16, ptr nonnull %4)
  ret void
}